; ModuleID = '32/1613.c'
source_filename = "32/1613.c"
target datalayout = "e-m:e-p270:32:32-p271:32:32-p272:64:64-i64:64-f80:128-n8:16:32:64-S128"
target triple = "x86_64-pc-linux-gnu"

@.str = private unnamed_addr constant [3 x i8] c"%d\00", align 1
@.str.1 = private unnamed_addr constant [3 x i8] c"%s\00", align 1
@.str.2 = private unnamed_addr constant [3 x i8] c"0\0A\00", align 1
@.str.3 = private unnamed_addr constant [3 x i8] c"%c\00", align 1
@.str.4 = private unnamed_addr constant [2 x i8] c"\0A\00", align 1

; Function Attrs: noinline nounwind uwtable
define dso_local void @main() #0 {
  %1 = alloca [200 x i8], align 16
  %2 = alloca [200 x i8], align 16
  %3 = alloca i8, align 1
  %4 = alloca i32, align 4
  %5 = alloca i32, align 4
  %6 = alloca i32, align 4
  %7 = alloca i32, align 4
  %8 = alloca i32, align 4
  %9 = alloca i32, align 4
  %10 = alloca i32, align 4
  %11 = alloca i32, align 4
  %12 = bitcast [200 x i8]* %1 to i8*
  call void @llvm.memset.p0i8.i64(i8* align 16 %12, i8 0, i64 200, i1 false)
  %13 = bitcast [200 x i8]* %2 to i8*
  call void @llvm.memset.p0i8.i64(i8* align 16 %13, i8 0, i64 200, i1 false)
  store i32 0, i32* %10, align 4
  %14 = call i32 (i8*, ...) @__isoc99_scanf(i8* getelementptr inbounds ([3 x i8], [3 x i8]* @.str, i64 0, i64 0), i32* %8)
  store i32 1, i32* %4, align 4
  br label %15

15:                                               ; preds = %185, %0
  %16 = load i32, i32* %4, align 4
  %17 = load i32, i32* %8, align 4
  %18 = icmp sle i32 %16, %17
  br i1 %18, label %19, label %188

19:                                               ; preds = %15
  %20 = getelementptr inbounds [200 x i8], [200 x i8]* %1, i64 0, i64 0
  %21 = call i32 (i8*, ...) @__isoc99_scanf(i8* getelementptr inbounds ([3 x i8], [3 x i8]* @.str.1, i64 0, i64 0), i8* %20)
  %22 = getelementptr inbounds [200 x i8], [200 x i8]* %2, i64 0, i64 0
  %23 = call i32 (i8*, ...) @__isoc99_scanf(i8* getelementptr inbounds ([3 x i8], [3 x i8]* @.str.1, i64 0, i64 0), i8* %22)
  %24 = getelementptr inbounds [200 x i8], [200 x i8]* %1, i64 0, i64 0
  %25 = call i64 @strlen(i8* %24) #4
  %26 = trunc i64 %25 to i32
  store i32 %26, i32* %6, align 4
  %27 = getelementptr inbounds [200 x i8], [200 x i8]* %2, i64 0, i64 0
  %28 = call i64 @strlen(i8* %27) #4
  %29 = trunc i64 %28 to i32
  store i32 %29, i32* %7, align 4
  %30 = load i32, i32* %6, align 4
  %31 = load i32, i32* %7, align 4
  %32 = sub nsw i32 %30, %31
  store i32 %32, i32* %11, align 4
  %33 = load i32, i32* %6, align 4
  %34 = sub nsw i32 %33, 1
  store i32 %34, i32* %5, align 4
  br label %35

35:                                               ; preds = %102, %19
  %36 = load i32, i32* %5, align 4
  %37 = load i32, i32* %11, align 4
  %38 = icmp sge i32 %36, %37
  br i1 %38, label %39, label %105

39:                                               ; preds = %35
  %40 = load i32, i32* %10, align 4
  %41 = icmp ne i32 %40, 0
  br i1 %41, label %42, label %48

42:                                               ; preds = %39
  %43 = load i32, i32* %5, align 4
  %44 = sext i32 %43 to i64
  %45 = getelementptr inbounds [200 x i8], [200 x i8]* %1, i64 0, i64 %44
  %46 = load i8, i8* %45, align 1
  %47 = add i8 %46, -1
  store i8 %47, i8* %45, align 1
  br label %48

48:                                               ; preds = %42, %39
  %49 = load i32, i32* %5, align 4
  %50 = sext i32 %49 to i64
  %51 = getelementptr inbounds [200 x i8], [200 x i8]* %1, i64 0, i64 %50
  %52 = load i8, i8* %51, align 1
  %53 = sext i8 %52 to i32
  %54 = load i32, i32* %5, align 4
  %55 = load i32, i32* %11, align 4
  %56 = sub nsw i32 %54, %55
  %57 = sext i32 %56 to i64
  %58 = getelementptr inbounds [200 x i8], [200 x i8]* %2, i64 0, i64 %57
  %59 = load i8, i8* %58, align 1
  %60 = sext i8 %59 to i32
  %61 = icmp sge i32 %53, %60
  br i1 %61, label %62, label %81

62:                                               ; preds = %48
  %63 = load i32, i32* %5, align 4
  %64 = sext i32 %63 to i64
  %65 = getelementptr inbounds [200 x i8], [200 x i8]* %1, i64 0, i64 %64
  %66 = load i8, i8* %65, align 1
  %67 = sext i8 %66 to i32
  %68 = load i32, i32* %5, align 4
  %69 = load i32, i32* %11, align 4
  %70 = sub nsw i32 %68, %69
  %71 = sext i32 %70 to i64
  %72 = getelementptr inbounds [200 x i8], [200 x i8]* %2, i64 0, i64 %71
  %73 = load i8, i8* %72, align 1
  %74 = sext i8 %73 to i32
  %75 = sub nsw i32 %67, %74
  %76 = add nsw i32 %75, 48
  %77 = trunc i32 %76 to i8
  %78 = load i32, i32* %5, align 4
  %79 = sext i32 %78 to i64
  %80 = getelementptr inbounds [200 x i8], [200 x i8]* %1, i64 0, i64 %79
  store i8 %77, i8* %80, align 1
  store i32 0, i32* %10, align 4
  br label %101

81:                                               ; preds = %48
  %82 = load i32, i32* %5, align 4
  %83 = sext i32 %82 to i64
  %84 = getelementptr inbounds [200 x i8], [200 x i8]* %1, i64 0, i64 %83
  %85 = load i8, i8* %84, align 1
  %86 = sext i8 %85 to i32
  %87 = add nsw i32 %86, 10
  %88 = load i32, i32* %5, align 4
  %89 = load i32, i32* %11, align 4
  %90 = sub nsw i32 %88, %89
  %91 = sext i32 %90 to i64
  %92 = getelementptr inbounds [200 x i8], [200 x i8]* %2, i64 0, i64 %91
  %93 = load i8, i8* %92, align 1
  %94 = sext i8 %93 to i32
  %95 = sub nsw i32 %87, %94
  %96 = add nsw i32 %95, 48
  %97 = trunc i32 %96 to i8
  %98 = load i32, i32* %5, align 4
  %99 = sext i32 %98 to i64
  %100 = getelementptr inbounds [200 x i8], [200 x i8]* %1, i64 0, i64 %99
  store i8 %97, i8* %100, align 1
  store i32 1, i32* %10, align 4
  br label %101

101:                                              ; preds = %81, %62
  br label %102

102:                                              ; preds = %101
  %103 = load i32, i32* %5, align 4
  %104 = add nsw i32 %103, -1
  store i32 %104, i32* %5, align 4
  br label %35

105:                                              ; preds = %35
  %106 = load i32, i32* %11, align 4
  %107 = sub nsw i32 %106, 1
  store i32 %107, i32* %5, align 4
  br label %108

108:                                              ; preds = %140, %105
  %109 = load i32, i32* %5, align 4
  %110 = icmp sge i32 %109, 0
  br i1 %110, label %111, label %143

111:                                              ; preds = %108
  %112 = load i32, i32* %10, align 4
  %113 = icmp ne i32 %112, 0
  br i1 %113, label %114, label %120

114:                                              ; preds = %111
  %115 = load i32, i32* %5, align 4
  %116 = sext i32 %115 to i64
  %117 = getelementptr inbounds [200 x i8], [200 x i8]* %1, i64 0, i64 %116
  %118 = load i8, i8* %117, align 1
  %119 = add i8 %118, -1
  store i8 %119, i8* %117, align 1
  br label %120

120:                                              ; preds = %114, %111
  %121 = load i32, i32* %5, align 4
  %122 = sext i32 %121 to i64
  %123 = getelementptr inbounds [200 x i8], [200 x i8]* %1, i64 0, i64 %122
  %124 = load i8, i8* %123, align 1
  %125 = sext i8 %124 to i32
  %126 = icmp slt i32 %125, 48
  br i1 %126, label %127, label %138

127:                                              ; preds = %120
  %128 = load i32, i32* %5, align 4
  %129 = sext i32 %128 to i64
  %130 = getelementptr inbounds [200 x i8], [200 x i8]* %1, i64 0, i64 %129
  %131 = load i8, i8* %130, align 1
  %132 = sext i8 %131 to i32
  %133 = add nsw i32 %132, 10
  %134 = trunc i32 %133 to i8
  %135 = load i32, i32* %5, align 4
  %136 = sext i32 %135 to i64
  %137 = getelementptr inbounds [200 x i8], [200 x i8]* %1, i64 0, i64 %136
  store i8 %134, i8* %137, align 1
  store i32 1, i32* %10, align 4
  br label %139

138:                                              ; preds = %120
  store i32 0, i32* %10, align 4
  br label %139

139:                                              ; preds = %138, %127
  br label %140

140:                                              ; preds = %139
  %141 = load i32, i32* %5, align 4
  %142 = add nsw i32 %141, -1
  store i32 %142, i32* %5, align 4
  br label %108

143:                                              ; preds = %108
  store i32 0, i32* %5, align 4
  br label %144

144:                                              ; preds = %158, %143
  %145 = load i32, i32* %5, align 4
  %146 = load i32, i32* %6, align 4
  %147 = icmp slt i32 %145, %146
  br i1 %147, label %148, label %161

148:                                              ; preds = %144
  %149 = load i32, i32* %5, align 4
  %150 = sext i32 %149 to i64
  %151 = getelementptr inbounds [200 x i8], [200 x i8]* %1, i64 0, i64 %150
  %152 = load i8, i8* %151, align 1
  %153 = sext i8 %152 to i32
  %154 = icmp ne i32 %153, 48
  br i1 %154, label %155, label %157

155:                                              ; preds = %148
  %156 = load i32, i32* %5, align 4
  store i32 %156, i32* %9, align 4
  br label %161

157:                                              ; preds = %148
  br label %158

158:                                              ; preds = %157
  %159 = load i32, i32* %5, align 4
  %160 = add nsw i32 %159, 1
  store i32 %160, i32* %5, align 4
  br label %144

161:                                              ; preds = %155, %144
  %162 = load i32, i32* %9, align 4
  %163 = icmp sgt i32 %162, 200
  br i1 %163, label %164, label %166

164:                                              ; preds = %161
  %165 = call i32 (i8*, ...) @printf(i8* getelementptr inbounds ([3 x i8], [3 x i8]* @.str.2, i64 0, i64 0))
  br label %184

166:                                              ; preds = %161
  %167 = load i32, i32* %9, align 4
  store i32 %167, i32* %5, align 4
  br label %168

168:                                              ; preds = %179, %166
  %169 = load i32, i32* %5, align 4
  %170 = load i32, i32* %6, align 4
  %171 = icmp slt i32 %169, %170
  br i1 %171, label %172, label %182

172:                                              ; preds = %168
  %173 = load i32, i32* %5, align 4
  %174 = sext i32 %173 to i64
  %175 = getelementptr inbounds [200 x i8], [200 x i8]* %1, i64 0, i64 %174
  %176 = load i8, i8* %175, align 1
  %177 = sext i8 %176 to i32
  %178 = call i32 (i8*, ...) @printf(i8* getelementptr inbounds ([3 x i8], [3 x i8]* @.str.3, i64 0, i64 0), i32 %177)
  br label %179

179:                                              ; preds = %172
  %180 = load i32, i32* %5, align 4
  %181 = add nsw i32 %180, 1
  store i32 %181, i32* %5, align 4
  br label %168

182:                                              ; preds = %168
  %183 = call i32 (i8*, ...) @printf(i8* getelementptr inbounds ([2 x i8], [2 x i8]* @.str.4, i64 0, i64 0))
  br label %184

184:                                              ; preds = %182, %164
  br label %185

185:                                              ; preds = %184
  %186 = load i32, i32* %4, align 4
  %187 = add nsw i32 %186, 1
  store i32 %187, i32* %4, align 4
  br label %15

188:                                              ; preds = %15
  ret void
}

; Function Attrs: argmemonly nounwind willreturn
declare void @llvm.memset.p0i8.i64(i8* nocapture writeonly, i8, i64, i1 immarg) #1

declare dso_local i32 @__isoc99_scanf(i8*, ...) #2

; Function Attrs: nounwind readonly
declare dso_local i64 @strlen(i8*) #3

declare dso_local i32 @printf(i8*, ...) #2


!llvm.module.flags = !{!0}
!llvm.ident = !{!1}

!0 = !{i32 1, !"wchar_size", i32 4}
!1 = !{!"clang version 10.0.0-4ubuntu1 "}
